target datalayout = "e-m:e-p270:32:32-p271:32:32-p272:64:64-i64:64-i128:128-f80:128-n8:16:32:64-S128"
target triple = "x86_64-pc-linux-gnu"

%struct.slurm_ops = type { ptr, ptr, ptr }
%struct.slurm_hash_t = type { i8, [32 x i8] }

@hash_id_to_inx = internal global [5 x i8] zeroinitializer, align 1
@ops = internal global ptr null, align 8
@.str.11 = private unnamed_addr constant [54 x i8] c"%s: hash plugin with id:%u not exist or is not loaded\00", align 1
@__func__.hash_g_compute = private unnamed_addr constant [15 x i8] c"hash_g_compute\00", align 1

; Function Attrs: nounwind uwtable
define dso_local i32 @hash_g_compute(ptr noundef %0, i32 noundef %1, ptr noundef %2, i32 noundef %3, ptr noundef %4) #0 {
  %6 = alloca i32, align 4
  %7 = alloca ptr, align 8
  %8 = alloca i32, align 4
  %9 = alloca ptr, align 8
  %10 = alloca i32, align 4
  %11 = alloca ptr, align 8
  %12 = alloca i32, align 4
  %13 = alloca i32, align 4
  store ptr %0, ptr %7, align 8
  store i32 %1, ptr %8, align 4
  store ptr %2, ptr %9, align 8
  store i32 %3, ptr %10, align 4
  store ptr %4, ptr %11, align 8
  call void @llvm.lifetime.start.p0(i64 4, ptr %12) #7
  %14 = load ptr, ptr %11, align 8
  %15 = getelementptr inbounds nuw %struct.slurm_hash_t, ptr %14, i32 0, i32 0
  %16 = load i8, ptr %15, align 1
  %17 = zext i8 %16 to i64
  %18 = icmp uge i64 %17, 5
  br i1 %18, label %28, label %19

19:                                               ; preds = %5
  %20 = load ptr, ptr %11, align 8
  %21 = getelementptr inbounds nuw %struct.slurm_hash_t, ptr %20, i32 0, i32 0
  %22 = load i8, ptr %21, align 1
  %23 = zext i8 %22 to i64
  %24 = getelementptr inbounds nuw [5 x i8], ptr @hash_id_to_inx, i64 0, i64 %23
  %25 = load i8, ptr %24, align 1
  %26 = zext i8 %25 to i32
  store i32 %26, ptr %12, align 4
  %27 = icmp eq i32 %26, 255
  br i1 %27, label %28, label %34

28:                                               ; preds = %19, %5
  %29 = load ptr, ptr %11, align 8
  %30 = getelementptr inbounds nuw %struct.slurm_hash_t, ptr %29, i32 0, i32 0
  %31 = load i8, ptr %30, align 1
  %32 = zext i8 %31 to i32
  %33 = call i32 (ptr, ...) @error(ptr noundef @.str.11, ptr noundef @__func__.hash_g_compute, i32 noundef %32)
  store i32 -1, ptr %6, align 4
  store i32 1, ptr %13, align 4
  br label %47

34:                                               ; preds = %19
  %35 = load ptr, ptr @ops, align 8
  %36 = load i32, ptr %12, align 4
  %37 = sext i32 %36 to i64
  %38 = getelementptr inbounds %struct.slurm_ops, ptr %35, i64 %37
  %39 = getelementptr inbounds nuw %struct.slurm_ops, ptr %38, i32 0, i32 2
  %40 = load ptr, ptr %39, align 8
  %41 = load ptr, ptr %7, align 8
  %42 = load i32, ptr %8, align 4
  %43 = load ptr, ptr %9, align 8
  %44 = load i32, ptr %10, align 4
  %45 = load ptr, ptr %11, align 8
  %46 = call i32 %40(ptr noundef %41, i32 noundef %42, ptr noundef %43, i32 noundef %44, ptr noundef %45)
  store i32 %46, ptr %6, align 4
  store i32 1, ptr %13, align 4
  br label %47

47:                                               ; preds = %34, %28
  call void @llvm.lifetime.end.p0(i64 4, ptr %12) #7
  %48 = load i32, ptr %6, align 4
  ret i32 %48
}