; Function Attrs: nounwind uwtable
define dso_local i32 @hash_g_compute(ptr noundef %0, i32 noundef %1, ptr noundef %2, i32 noundef %3, ptr noundef %4) local_unnamed_addr #0 {
  %6 = load i8, ptr %4, align 1
  %7 = icmp ugt i8 %6, 4
  br i1 %7, label %13, label %8

8:                                                ; preds = %5
  %9 = zext nneg i8 %6 to i64
  %10 = getelementptr inbounds nuw [5 x i8], ptr @hash_id_to_inx, i64 0, i64 %9
  %11 = load i8, ptr %10, align 1
  %12 = icmp eq i8 %11, -1
  br i1 %12, label %13, label %16

13:                                               ; preds = %8, %5
  %14 = zext i8 %6 to i32
  %15 = tail call i32 (ptr, ...) @error(ptr noundef nonnull @.str.11, ptr noundef nonnull @__func__.hash_g_compute, i32 noundef %14) #8
  br label %22

16:                                               ; preds = %8
  %17 = load ptr, ptr @ops, align 8
  %18 = zext i8 %11 to i64
  %19 = getelementptr inbounds nuw %struct.slurm_ops, ptr %17, i64 %18, i32 2
  %20 = load ptr, ptr %19, align 8
  %21 = tail call i32 %20(ptr noundef %0, i32 noundef %1, ptr noundef %2, i32 noundef %3, ptr noundef nonnull %4) #8
  br label %22

22:                                               ; preds = %16, %13
  %.0 = phi i32 [ -1, %13 ], [ %21, %16 ]
  ret i32 %.0
}